target datalayout = "e-m:e-p270:32:32-p271:32:32-p272:64:64-i64:64-i128:128-f80:128-n8:16:32:64-S128"
target triple = "x86_64-pc-linux-gnu"

%class.FindFile = type { [2048 x i32], i8, ptr }
%struct.FindData = type <{ [2048 x i32], i64, i32, i8, i8, [2 x i8], %class.RarTime, %class.RarTime, %class.RarTime, i32, i8, [3 x i8] }>
%class.RarTime = type { i64 }

; Function Attrs: mustprogress nounwind uwtable
define linkonce_odr void @_ZN7RarTime5ResetEv(ptr noundef nonnull align 8 dereferenceable(8) %0) #4 comdat align 2 {
  %2 = alloca ptr, align 8
  store ptr %0, ptr %2, align 8
  %3 = load ptr, ptr %2, align 8
  %4 = getelementptr inbounds %class.RarTime, ptr %3, i32 0, i32 0
  store i64 0, ptr %4, align 8
  ret void
}

; Function Attrs: mustprogress uwtable
define linkonce_odr void @_ZN7RarTimeC2Ev(ptr noundef nonnull align 8 dereferenceable(8) %0) unnamed_addr #0 comdat align 2 {
  %2 = alloca ptr, align 8
  store ptr %0, ptr %2, align 8
  %3 = load ptr, ptr %2, align 8
  call void @_ZN7RarTime5ResetEv(ptr noundef nonnull align 8 dereferenceable(8) %3)
  ret void
}

; Function Attrs: mustprogress uwtable
define noundef zeroext i1 @_Z9FileExistPKw(ptr noundef %0) #0 {
  %2 = alloca ptr, align 8
  %3 = alloca [2048 x i8], align 16
  store ptr %0, ptr %2, align 8
  %4 = load ptr, ptr %2, align 8
  %5 = getelementptr inbounds [2048 x i8], ptr %3, i64 0, i64 0
  %6 = call noundef zeroext i1 @_Z10WideToCharPKwPcm(ptr noundef %4, ptr noundef %5, i64 noundef 2048)
  %7 = getelementptr inbounds [2048 x i8], ptr %3, i64 0, i64 0
  %8 = call i32 @access(ptr noundef %7, i32 noundef 0) #9
  %9 = icmp eq i32 %8, 0
  ret i1 %9
}

; Function Attrs: mustprogress uwtable
define linkonce_odr void @_ZN8FindDataC2Ev(ptr noundef nonnull align 8 dereferenceable(8237) %0) unnamed_addr #0 comdat align 2 {
  %2 = alloca ptr, align 8
  store ptr %0, ptr %2, align 8
  %3 = load ptr, ptr %2, align 8
  %4 = getelementptr inbounds %struct.FindData, ptr %3, i32 0, i32 6
  call void @_ZN7RarTimeC2Ev(ptr noundef nonnull align 8 dereferenceable(8) %4)
  %5 = getelementptr inbounds %struct.FindData, ptr %3, i32 0, i32 7
  call void @_ZN7RarTimeC2Ev(ptr noundef nonnull align 8 dereferenceable(8) %5)
  %6 = getelementptr inbounds %struct.FindData, ptr %3, i32 0, i32 8
  call void @_ZN7RarTimeC2Ev(ptr noundef nonnull align 8 dereferenceable(8) %6)
  ret void
}

; Function Attrs: mustprogress uwtable
define noundef zeroext i1 @_Z13WildFileExistPKw(ptr noundef %0) #0 personality ptr @__gxx_personality_v0 {
  %2 = alloca i1, align 1
  %3 = alloca ptr, align 8
  %4 = alloca %class.FindFile, align 8
  %5 = alloca ptr, align 8
  %6 = alloca i32, align 4
  %7 = alloca %struct.FindData, align 8
  store ptr %0, ptr %3, align 8
  %8 = load ptr, ptr %3, align 8
  %9 = call noundef zeroext i1 @_Z10IsWildcardPKw(ptr noundef %8)
  br i1 %9, label %10, label %20

10:                                               ; preds = %1
  call void @_ZN8FindFileC1Ev(ptr noundef nonnull align 8 dereferenceable(8208) %4)
  %11 = load ptr, ptr %3, align 8
  invoke void @_ZN8FindFile7SetMaskEPKw(ptr noundef nonnull align 8 dereferenceable(8208) %4, ptr noundef %11)
          to label %12 unwind label %16

12:                                               ; preds = %10
  invoke void @_ZN8FindDataC2Ev(ptr noundef nonnull align 8 dereferenceable(8237) %7)
          to label %13 unwind label %16

13:                                               ; preds = %12
  %14 = invoke noundef zeroext i1 @_ZN8FindFile4NextEP8FindDatab(ptr noundef nonnull align 8 dereferenceable(8208) %4, ptr noundef %7, i1 noundef zeroext false)
          to label %15 unwind label %16

15:                                               ; preds = %13
  store i1 %14, ptr %2, align 1
  call void @_ZN8FindFileD1Ev(ptr noundef nonnull align 8 dereferenceable(8208) %4) #9
  br label %23

16:                                               ; preds = %13, %12, %10
  %17 = landingpad { ptr, i32 }
          cleanup
  %18 = extractvalue { ptr, i32 } %17, 0
  store ptr %18, ptr %5, align 8
  %19 = extractvalue { ptr, i32 } %17, 1
  store i32 %19, ptr %6, align 4
  call void @_ZN8FindFileD1Ev(ptr noundef nonnull align 8 dereferenceable(8208) %4) #9
  br label %25

20:                                               ; preds = %1
  %21 = load ptr, ptr %3, align 8
  %22 = call noundef zeroext i1 @_Z9FileExistPKw(ptr noundef %21)
  store i1 %22, ptr %2, align 1
  br label %23

23:                                               ; preds = %20, %15
  %24 = load i1, ptr %2, align 1
  ret i1 %24

25:                                               ; preds = %16
  %26 = load ptr, ptr %5, align 8
  %27 = load i32, ptr %6, align 4
  %28 = insertvalue { ptr, i32 } poison, ptr %26, 0
  %29 = insertvalue { ptr, i32 } %28, i32 %27, 1
  resume { ptr, i32 } %29
}