; Function Attrs: mustprogress uwtable
define noundef zeroext i1 @_Z13WildFileExistPKw(ptr noundef %0) local_unnamed_addr #0 personality ptr @__gxx_personality_v0 {
  %2 = alloca [2048 x i8], align 16
  %3 = alloca %class.FindFile, align 8
  %4 = alloca %struct.FindData, align 8
  %5 = tail call noundef zeroext i1 @_Z10IsWildcardPKw(ptr noundef %0)
  br i1 %5, label %6, label %13

6:                                                ; preds = %1
  call void @_ZN8FindFileC1Ev(ptr noundef nonnull align 8 dereferenceable(8208) %3)
  invoke void @_ZN8FindFile7SetMaskEPKw(ptr noundef nonnull align 8 dereferenceable(8208) %3, ptr noundef %0)
          to label %7 unwind label %11

7:                                                ; preds = %6
  %8 = getelementptr inbounds nuw i8, ptr %4, i64 8208
  call void @llvm.memset.p0.i64(ptr noundef nonnull align 8 dereferenceable(24) %8, i8 0, i64 24, i1 false)
  %9 = invoke noundef zeroext i1 @_ZN8FindFile4NextEP8FindDatab(ptr noundef nonnull align 8 dereferenceable(8208) %3, ptr noundef nonnull %4, i1 noundef zeroext false)
          to label %10 unwind label %11

10:                                               ; preds = %7
  call void @_ZN8FindFileD1Ev(ptr noundef nonnull align 8 dereferenceable(8208) %3) #14
  br label %17

11:                                               ; preds = %7, %6
  %12 = landingpad { ptr, i32 }
          cleanup
  call void @_ZN8FindFileD1Ev(ptr noundef nonnull align 8 dereferenceable(8208) %3) #14
  resume { ptr, i32 } %12

13:                                               ; preds = %1
  call void @llvm.lifetime.start.p0(i64 2048, ptr nonnull %2)
  %14 = call noundef zeroext i1 @_Z10WideToCharPKwPcm(ptr noundef %0, ptr noundef nonnull %2, i64 noundef 2048)
  %15 = call i32 @access(ptr noundef nonnull %2, i32 noundef 0) #14
  %16 = icmp eq i32 %15, 0
  call void @llvm.lifetime.end.p0(i64 2048, ptr nonnull %2)
  br label %17

17:                                               ; preds = %13, %10
  %.0 = phi i1 [ %9, %10 ], [ %16, %13 ]
  ret i1 %.0
}